target datalayout = "e-m:e-p270:32:32-p271:32:32-p272:64:64-i64:64-i128:128-f80:128-n8:16:32:64-S128"
target triple = "x86_64-pc-linux-gnu"

%struct.SDL_AudioStream = type { ptr, i32, ptr, ptr, ptr, ptr, %struct.SDL_AudioSpec, %struct.SDL_AudioSpec, ptr, ptr, float, float, ptr, %struct.SDL_AudioSpec, ptr, [8 x i32], i64, ptr, i64, i8, ptr, ptr, ptr, ptr, ptr }
%struct.SDL_AudioSpec = type { i32, i32, i32 }
%struct.SDL_LogicalAudioDevice = type { i32, ptr, %struct.SDL_AtomicInt, float, ptr, i8, i8, ptr, ptr, ptr, ptr, ptr, ptr, ptr }
%struct.SDL_AtomicInt = type { i32 }
%struct.SDL_AudioDevice = type { ptr, ptr, %struct.SDL_AtomicInt, ptr, ptr, ptr, ptr, ptr, ptr, ptr, i32, ptr, %struct.SDL_AudioSpec, i32, ptr, %struct.SDL_AudioSpec, i32, i32, %struct.SDL_AtomicInt, %struct.SDL_AtomicInt, i8, i8, ptr, ptr, ptr, i32, ptr, i8, ptr, ptr }

@.str = private unnamed_addr constant [26 x i8] c"Parameter '%s' is invalid\00", align 1
@.str.1 = private unnamed_addr constant [7 x i8] c"stream\00", align 1
@.str.4 = private unnamed_addr constant [17 x i8] c"src_spec->format\00", align 1
@.str.5 = private unnamed_addr constant [19 x i8] c"src_spec->channels\00", align 1
@.str.6 = private unnamed_addr constant [15 x i8] c"src_spec->freq\00", align 1
@.str.7 = private unnamed_addr constant [17 x i8] c"dst_spec->format\00", align 1
@.str.8 = private unnamed_addr constant [19 x i8] c"dst_spec->channels\00", align 1
@.str.9 = private unnamed_addr constant [15 x i8] c"dst_spec->freq\00", align 1

; Function Attrs: nounwind uwtable
define internal zeroext i1 @SDL_IsSupportedChannelCount(i32 noundef %0) #0 {
  %2 = alloca i32, align 4
  store i32 %0, ptr %2, align 4
  %3 = load i32, ptr %2, align 4
  %4 = icmp sge i32 %3, 1
  br i1 %4, label %5, label %8

5:                                                ; preds = %1
  %6 = load i32, ptr %2, align 4
  %7 = icmp sle i32 %6, 8
  br label %8

8:                                                ; preds = %5, %1
  %9 = phi i1 [ false, %1 ], [ %7, %5 ]
  ret i1 %9
}

; Function Attrs: nounwind uwtable
define internal zeroext i1 @SDL_IsSupportedAudioFormat(i32 noundef %0) #0 {
  %2 = alloca i1, align 1
  %3 = alloca i32, align 4
  store i32 %0, ptr %3, align 4
  %4 = load i32, ptr %3, align 4
  switch i32 %4, label %6 [
    i32 8, label %5
    i32 32776, label %5
    i32 32784, label %5
    i32 36880, label %5
    i32 32800, label %5
    i32 36896, label %5
    i32 33056, label %5
    i32 37152, label %5
  ]

5:                                                ; preds = %1, %1, %1, %1, %1, %1, %1, %1
  store i1 true, ptr %2, align 1
  br label %8

6:                                                ; preds = %1
  br label %7

7:                                                ; preds = %6
  store i1 false, ptr %2, align 1
  br label %8

8:                                                ; preds = %7, %5
  %9 = load i1, ptr %2, align 1
  ret i1 %9
}

; Function Attrs: nounwind uwtable
define hidden zeroext i1 @SDL_SetAudioStreamFormat_REAL(ptr noundef %0, ptr noundef %1, ptr noundef %2) #0 {
  %4 = alloca i1, align 1
  %5 = alloca ptr, align 8
  %6 = alloca ptr, align 8
  %7 = alloca ptr, align 8
  store ptr %0, ptr %5, align 8
  store ptr %1, ptr %6, align 8
  store ptr %2, ptr %7, align 8
  %8 = load ptr, ptr %5, align 8
  %9 = icmp ne ptr %8, null
  br i1 %9, label %12, label %10

10:                                               ; preds = %3
  %11 = call zeroext i1 (ptr, ...) @SDL_SetError_REAL(ptr noundef @.str, ptr noundef @.str.1)
  store i1 %11, ptr %4, align 1
  br label %134

12:                                               ; preds = %3
  %13 = load ptr, ptr %6, align 8
  %14 = icmp ne ptr %13, null
  br i1 %14, label %15, label %39

15:                                               ; preds = %12
  %16 = load ptr, ptr %6, align 8
  %17 = getelementptr inbounds nuw %struct.SDL_AudioSpec, ptr %16, i32 0, i32 0
  %18 = load i32, ptr %17, align 4
  %19 = call zeroext i1 @SDL_IsSupportedAudioFormat(i32 noundef %18)
  br i1 %19, label %22, label %20

20:                                               ; preds = %15
  %21 = call zeroext i1 (ptr, ...) @SDL_SetError_REAL(ptr noundef @.str, ptr noundef @.str.4)
  store i1 %21, ptr %4, align 1
  br label %134

22:                                               ; preds = %15
  %23 = load ptr, ptr %6, align 8
  %24 = getelementptr inbounds nuw %struct.SDL_AudioSpec, ptr %23, i32 0, i32 1
  %25 = load i32, ptr %24, align 4
  %26 = call zeroext i1 @SDL_IsSupportedChannelCount(i32 noundef %25)
  br i1 %26, label %29, label %27

27:                                               ; preds = %22
  %28 = call zeroext i1 (ptr, ...) @SDL_SetError_REAL(ptr noundef @.str, ptr noundef @.str.5)
  store i1 %28, ptr %4, align 1
  br label %134

29:                                               ; preds = %22
  %30 = load ptr, ptr %6, align 8
  %31 = getelementptr inbounds nuw %struct.SDL_AudioSpec, ptr %30, i32 0, i32 2
  %32 = load i32, ptr %31, align 4
  %33 = icmp sle i32 %32, 0
  br i1 %33, label %34, label %36

34:                                               ; preds = %29
  %35 = call zeroext i1 (ptr, ...) @SDL_SetError_REAL(ptr noundef @.str, ptr noundef @.str.6)
  store i1 %35, ptr %4, align 1
  br label %134

36:                                               ; preds = %29
  br label %37

37:                                               ; preds = %36
  br label %38

38:                                               ; preds = %37
  br label %39

39:                                               ; preds = %38, %12
  %40 = load ptr, ptr %7, align 8
  %41 = icmp ne ptr %40, null
  br i1 %41, label %42, label %66

42:                                               ; preds = %39
  %43 = load ptr, ptr %7, align 8
  %44 = getelementptr inbounds nuw %struct.SDL_AudioSpec, ptr %43, i32 0, i32 0
  %45 = load i32, ptr %44, align 4
  %46 = call zeroext i1 @SDL_IsSupportedAudioFormat(i32 noundef %45)
  br i1 %46, label %49, label %47

47:                                               ; preds = %42
  %48 = call zeroext i1 (ptr, ...) @SDL_SetError_REAL(ptr noundef @.str, ptr noundef @.str.7)
  store i1 %48, ptr %4, align 1
  br label %134

49:                                               ; preds = %42
  %50 = load ptr, ptr %7, align 8
  %51 = getelementptr inbounds nuw %struct.SDL_AudioSpec, ptr %50, i32 0, i32 1
  %52 = load i32, ptr %51, align 4
  %53 = call zeroext i1 @SDL_IsSupportedChannelCount(i32 noundef %52)
  br i1 %53, label %56, label %54

54:                                               ; preds = %49
  %55 = call zeroext i1 (ptr, ...) @SDL_SetError_REAL(ptr noundef @.str, ptr noundef @.str.8)
  store i1 %55, ptr %4, align 1
  br label %134

56:                                               ; preds = %49
  %57 = load ptr, ptr %7, align 8
  %58 = getelementptr inbounds nuw %struct.SDL_AudioSpec, ptr %57, i32 0, i32 2
  %59 = load i32, ptr %58, align 4
  %60 = icmp sle i32 %59, 0
  br i1 %60, label %61, label %63

61:                                               ; preds = %56
  %62 = call zeroext i1 (ptr, ...) @SDL_SetError_REAL(ptr noundef @.str, ptr noundef @.str.9)
  store i1 %62, ptr %4, align 1
  br label %134

63:                                               ; preds = %56
  br label %64

64:                                               ; preds = %63
  br label %65

65:                                               ; preds = %64
  br label %66

66:                                               ; preds = %65, %39
  %67 = load ptr, ptr %5, align 8
  %68 = getelementptr inbounds nuw %struct.SDL_AudioStream, ptr %67, i32 0, i32 0
  %69 = load ptr, ptr %68, align 8
  call void @SDL_LockMutex_REAL(ptr noundef %69)
  %70 = load ptr, ptr %5, align 8
  %71 = getelementptr inbounds nuw %struct.SDL_AudioStream, ptr %70, i32 0, i32 20
  %72 = load ptr, ptr %71, align 8
  %73 = icmp ne ptr %72, null
  br i1 %73, label %74, label %86

74:                                               ; preds = %66
  %75 = load ptr, ptr %5, align 8
  %76 = getelementptr inbounds nuw %struct.SDL_AudioStream, ptr %75, i32 0, i32 20
  %77 = load ptr, ptr %76, align 8
  %78 = getelementptr inbounds nuw %struct.SDL_LogicalAudioDevice, ptr %77, i32 0, i32 1
  %79 = load ptr, ptr %78, align 8
  %80 = getelementptr inbounds nuw %struct.SDL_AudioDevice, ptr %79, i32 0, i32 20
  %81 = load i8, ptr %80, align 4, !range !6, !noundef !7
  %82 = trunc i8 %81 to i1
  br i1 %82, label %83, label %84

83:                                               ; preds = %74
  store ptr null, ptr %6, align 8
  br label %85

84:                                               ; preds = %74
  store ptr null, ptr %7, align 8
  br label %85

85:                                               ; preds = %84, %83
  br label %86

86:                                               ; preds = %85, %66
  %87 = load ptr, ptr %6, align 8
  %88 = icmp ne ptr %87, null
  br i1 %88, label %89, label %108

89:                                               ; preds = %86
  %90 = load ptr, ptr %6, align 8
  %91 = getelementptr inbounds nuw %struct.SDL_AudioSpec, ptr %90, i32 0, i32 1
  %92 = load i32, ptr %91, align 4
  %93 = load ptr, ptr %5, align 8
  %94 = getelementptr inbounds nuw %struct.SDL_AudioStream, ptr %93, i32 0, i32 6
  %95 = getelementptr inbounds nuw %struct.SDL_AudioSpec, ptr %94, i32 0, i32 1
  %96 = load i32, ptr %95, align 4
  %97 = icmp ne i32 %92, %96
  br i1 %97, label %98, label %104

98:                                               ; preds = %89
  %99 = load ptr, ptr %5, align 8
  %100 = getelementptr inbounds nuw %struct.SDL_AudioStream, ptr %99, i32 0, i32 8
  %101 = load ptr, ptr %100, align 8
  call void @SDL_free_REAL(ptr noundef %101)
  %102 = load ptr, ptr %5, align 8
  %103 = getelementptr inbounds nuw %struct.SDL_AudioStream, ptr %102, i32 0, i32 8
  store ptr null, ptr %103, align 8
  br label %104

104:                                              ; preds = %98, %89
  %105 = load ptr, ptr %5, align 8
  %106 = getelementptr inbounds nuw %struct.SDL_AudioStream, ptr %105, i32 0, i32 6
  %107 = load ptr, ptr %6, align 8
  call void @llvm.memcpy.p0.p0.i64(ptr align 8 %106, ptr align 4 %107, i64 12, i1 false)
  br label %108

108:                                              ; preds = %104, %86
  %109 = load ptr, ptr %7, align 8
  %110 = icmp ne ptr %109, null
  br i1 %110, label %111, label %130

111:                                              ; preds = %108
  %112 = load ptr, ptr %7, align 8
  %113 = getelementptr inbounds nuw %struct.SDL_AudioSpec, ptr %112, i32 0, i32 1
  %114 = load i32, ptr %113, align 4
  %115 = load ptr, ptr %5, align 8
  %116 = getelementptr inbounds nuw %struct.SDL_AudioStream, ptr %115, i32 0, i32 7
  %117 = getelementptr inbounds nuw %struct.SDL_AudioSpec, ptr %116, i32 0, i32 1
  %118 = load i32, ptr %117, align 4
  %119 = icmp ne i32 %114, %118
  br i1 %119, label %120, label %126

120:                                              ; preds = %111
  %121 = load ptr, ptr %5, align 8
  %122 = getelementptr inbounds nuw %struct.SDL_AudioStream, ptr %121, i32 0, i32 9
  %123 = load ptr, ptr %122, align 8
  call void @SDL_free_REAL(ptr noundef %123)
  %124 = load ptr, ptr %5, align 8
  %125 = getelementptr inbounds nuw %struct.SDL_AudioStream, ptr %124, i32 0, i32 9
  store ptr null, ptr %125, align 8
  br label %126

126:                                              ; preds = %120, %111
  %127 = load ptr, ptr %5, align 8
  %128 = getelementptr inbounds nuw %struct.SDL_AudioStream, ptr %127, i32 0, i32 7
  %129 = load ptr, ptr %7, align 8
  call void @llvm.memcpy.p0.p0.i64(ptr align 4 %128, ptr align 4 %129, i64 12, i1 false)
  br label %130

130:                                              ; preds = %126, %108
  %131 = load ptr, ptr %5, align 8
  %132 = getelementptr inbounds nuw %struct.SDL_AudioStream, ptr %131, i32 0, i32 0
  %133 = load ptr, ptr %132, align 8
  call void @SDL_UnlockMutex_REAL(ptr noundef %133)
  store i1 true, ptr %4, align 1
  br label %134

134:                                              ; preds = %130, %61, %54, %47, %34, %27, %20, %10
  %135 = load i1, ptr %4, align 1
  ret i1 %135
}