; Function Attrs: nounwind uwtable
define hidden zeroext i1 @SDL_SetAudioStreamFormat_REAL(ptr noundef captures(address_is_null) %0, ptr noundef readonly captures(address_is_null) %1, ptr noundef readonly captures(address) %2) local_unnamed_addr #2 {
  %.not = icmp eq ptr %0, null
  br i1 %.not, label %4, label %6

4:                                                ; preds = %3
  %5 = tail call zeroext i1 (ptr, ...) @SDL_SetError_REAL(ptr noundef nonnull @.str, ptr noundef nonnull @.str.1) #11
  br label %73

6:                                                ; preds = %3
  %.not34 = icmp eq ptr %1, null
  br i1 %.not34, label %23, label %7

7:                                                ; preds = %6
  %8 = load i32, ptr %1, align 4
  switch i32 %8, label %SDL_IsSupportedAudioFormat.exit [
    i32 8, label %10
    i32 32776, label %10
    i32 32784, label %10
    i32 36880, label %10
    i32 32800, label %10
    i32 36896, label %10
    i32 33056, label %10
    i32 37152, label %10
  ]

SDL_IsSupportedAudioFormat.exit:                  ; preds = %7
  %9 = tail call zeroext i1 (ptr, ...) @SDL_SetError_REAL(ptr noundef nonnull @.str, ptr noundef nonnull @.str.4) #11
  br label %73

10:                                               ; preds = %7, %7, %7, %7, %7, %7, %7, %7
  %11 = getelementptr inbounds nuw i8, ptr %1, i64 4
  %12 = load i32, ptr %11, align 4
  %13 = add i32 %12, -1
  %14 = icmp ult i32 %13, 8
  br i1 %14, label %17, label %15

15:                                               ; preds = %10
  %16 = tail call zeroext i1 (ptr, ...) @SDL_SetError_REAL(ptr noundef nonnull @.str, ptr noundef nonnull @.str.5) #11
  br label %73

17:                                               ; preds = %10
  %18 = getelementptr inbounds nuw i8, ptr %1, i64 8
  %19 = load i32, ptr %18, align 4
  %20 = icmp slt i32 %19, 1
  br i1 %20, label %21, label %23

21:                                               ; preds = %17
  %22 = tail call zeroext i1 (ptr, ...) @SDL_SetError_REAL(ptr noundef nonnull @.str, ptr noundef nonnull @.str.6) #11
  br label %73

23:                                               ; preds = %17, %6
  %.not35 = icmp eq ptr %2, null
  br i1 %.not35, label %40, label %24

24:                                               ; preds = %23
  %25 = load i32, ptr %2, align 4
  switch i32 %25, label %SDL_IsSupportedAudioFormat.exit43 [
    i32 8, label %27
    i32 32776, label %27
    i32 32784, label %27
    i32 36880, label %27
    i32 32800, label %27
    i32 36896, label %27
    i32 33056, label %27
    i32 37152, label %27
  ]

SDL_IsSupportedAudioFormat.exit43:                ; preds = %24
  %26 = tail call zeroext i1 (ptr, ...) @SDL_SetError_REAL(ptr noundef nonnull @.str, ptr noundef nonnull @.str.7) #11
  br label %73

27:                                               ; preds = %24, %24, %24, %24, %24, %24, %24, %24
  %28 = getelementptr inbounds nuw i8, ptr %2, i64 4
  %29 = load i32, ptr %28, align 4
  %30 = add i32 %29, -1
  %31 = icmp ult i32 %30, 8
  br i1 %31, label %34, label %32

32:                                               ; preds = %27
  %33 = tail call zeroext i1 (ptr, ...) @SDL_SetError_REAL(ptr noundef nonnull @.str, ptr noundef nonnull @.str.8) #11
  br label %73

34:                                               ; preds = %27
  %35 = getelementptr inbounds nuw i8, ptr %2, i64 8
  %36 = load i32, ptr %35, align 4
  %37 = icmp slt i32 %36, 1
  br i1 %37, label %38, label %40

38:                                               ; preds = %34
  %39 = tail call zeroext i1 (ptr, ...) @SDL_SetError_REAL(ptr noundef nonnull @.str, ptr noundef nonnull @.str.9) #11
  br label %73

40:                                               ; preds = %34, %23
  %41 = load ptr, ptr %0, align 8
  tail call void @SDL_LockMutex_REAL(ptr noundef %41) #11
  %42 = getelementptr inbounds nuw i8, ptr %0, i64 192
  %43 = load ptr, ptr %42, align 8
  %.not36 = icmp eq ptr %43, null
  br i1 %.not36, label %50, label %44

44:                                               ; preds = %40
  %45 = getelementptr inbounds nuw i8, ptr %43, i64 8
  %46 = load ptr, ptr %45, align 8
  %47 = getelementptr inbounds nuw i8, ptr %46, i64 148
  %48 = load i8, ptr %47, align 4, !range !35, !noundef !36
  %49 = trunc nuw i8 %48 to i1
  br i1 %49, label %.thread, label %50

50:                                               ; preds = %44, %40
  %.0 = phi ptr [ %2, %40 ], [ null, %44 ]
  br i1 %.not34, label %.thread, label %51

51:                                               ; preds = %50
  %52 = getelementptr inbounds nuw i8, ptr %1, i64 4
  %53 = load i32, ptr %52, align 4
  %54 = getelementptr inbounds nuw i8, ptr %0, i64 48
  %55 = getelementptr inbounds nuw i8, ptr %0, i64 52
  %56 = load i32, ptr %55, align 4
  %.not38 = icmp eq i32 %53, %56
  br i1 %.not38, label %60, label %57

57:                                               ; preds = %51
  %58 = getelementptr inbounds nuw i8, ptr %0, i64 72
  %59 = load ptr, ptr %58, align 8
  tail call void @SDL_free_REAL(ptr noundef %59) #11
  store ptr null, ptr %58, align 8
  br label %60

60:                                               ; preds = %57, %51
  tail call void @llvm.memcpy.p0.p0.i64(ptr noundef nonnull align 8 dereferenceable(12) %54, ptr noundef nonnull align 4 dereferenceable(12) %1, i64 12, i1 false)
  br label %.thread

.thread:                                          ; preds = %44, %60, %50
  %.049 = phi ptr [ %.0, %60 ], [ %.0, %50 ], [ %2, %44 ]
  %.not39 = icmp eq ptr %.049, null
  br i1 %.not39, label %71, label %61

61:                                               ; preds = %.thread
  %62 = getelementptr inbounds nuw i8, ptr %.049, i64 4
  %63 = load i32, ptr %62, align 4
  %64 = getelementptr inbounds nuw i8, ptr %0, i64 60
  %65 = getelementptr inbounds nuw i8, ptr %0, i64 64
  %66 = load i32, ptr %65, align 4
  %.not40 = icmp eq i32 %63, %66
  br i1 %.not40, label %70, label %67

67:                                               ; preds = %61
  %68 = getelementptr inbounds nuw i8, ptr %0, i64 80
  %69 = load ptr, ptr %68, align 8
  tail call void @SDL_free_REAL(ptr noundef %69) #11
  store ptr null, ptr %68, align 8
  br label %70

70:                                               ; preds = %67, %61
  tail call void @llvm.memcpy.p0.p0.i64(ptr noundef nonnull align 4 dereferenceable(12) %64, ptr noundef nonnull align 4 dereferenceable(12) %.049, i64 12, i1 false)
  br label %71

71:                                               ; preds = %70, %.thread
  %72 = load ptr, ptr %0, align 8
  tail call void @SDL_UnlockMutex_REAL(ptr noundef %72) #11
  br label %73

73:                                               ; preds = %71, %38, %32, %SDL_IsSupportedAudioFormat.exit43, %21, %15, %SDL_IsSupportedAudioFormat.exit, %4
  %.029 = phi i1 [ %22, %21 ], [ %39, %38 ], [ true, %71 ], [ %33, %32 ], [ %26, %SDL_IsSupportedAudioFormat.exit43 ], [ %16, %15 ], [ %9, %SDL_IsSupportedAudioFormat.exit ], [ %5, %4 ]
  ret i1 %.029
}